target datalayout = "e-m:e-p270:32:32-p271:32:32-p272:64:64-i64:64-i128:128-f80:128-n8:16:32:64-S128"
target triple = "x86_64-pc-linux-gnu"

%class.ZErrno = type { i32 }
%class.ZPhysicalMemoryBacking = type <{ i32, [4 x i8], i64, i64, i64, i64, i8, [7 x i8] }>

; Function Attrs: mustprogress nounwind uwtable
define hidden i32 @_ZNK22ZPhysicalMemoryBacking9fallocateEb7zoffsetm(ptr noundef nonnull align 8 dereferenceable(41) %0, i1 noundef zeroext %1, i64 noundef %2, i64 noundef %3) #1 align 2 {
  %5 = alloca %class.ZErrno, align 4
  %6 = alloca ptr, align 8
  %7 = alloca i8, align 1
  %8 = alloca i64, align 8
  %9 = alloca i64, align 8
  %10 = alloca %class.ZErrno, align 4
  store ptr %0, ptr %6, align 8
  %11 = zext i1 %1 to i8
  store i8 %11, ptr %7, align 1
  store i64 %2, ptr %8, align 8
  store i64 %3, ptr %9, align 8
  %12 = load ptr, ptr %6, align 8
  %13 = load i8, ptr %7, align 1
  %14 = trunc i8 %13 to i1
  br i1 %14, label %15, label %20

15:                                               ; preds = %4
  %16 = load i64, ptr %8, align 8
  %17 = load i64, ptr %9, align 8
  %18 = call i32 @_ZNK22ZPhysicalMemoryBacking20fallocate_punch_holeE7zoffsetm(ptr noundef nonnull align 8 dereferenceable(41) %12, i64 noundef %16, i64 noundef %17)
  %19 = getelementptr inbounds %class.ZErrno, ptr %10, i32 0, i32 0
  store i32 %18, ptr %19, align 4
  br label %25

20:                                               ; preds = %4
  %21 = load i64, ptr %8, align 8
  %22 = load i64, ptr %9, align 8
  %23 = call i32 @_ZNK22ZPhysicalMemoryBacking19fallocate_fill_holeE7zoffsetm(ptr noundef nonnull align 8 dereferenceable(41) %12, i64 noundef %21, i64 noundef %22)
  %24 = getelementptr inbounds %class.ZErrno, ptr %10, i32 0, i32 0
  store i32 %23, ptr %24, align 4
  br label %25

25:                                               ; preds = %20, %15
  %26 = call noundef zeroext i1 @_ZNK6ZErrnoeqEi(ptr noundef nonnull align 4 dereferenceable(4) %10, i32 noundef 4)
  br i1 %26, label %27, label %39

27:                                               ; preds = %25
  %28 = load i64, ptr %9, align 8
  %29 = getelementptr inbounds %class.ZPhysicalMemoryBacking, ptr %12, i32 0, i32 4
  %30 = load i64, ptr %29, align 8
  %31 = icmp ugt i64 %28, %30
  br i1 %31, label %32, label %39

32:                                               ; preds = %27
  %33 = load i8, ptr %7, align 1
  %34 = trunc i8 %33 to i1
  %35 = load i64, ptr %8, align 8
  %36 = load i64, ptr %9, align 8
  %37 = call i32 @_ZNK22ZPhysicalMemoryBacking19split_and_fallocateEb7zoffsetm(ptr noundef nonnull align 8 dereferenceable(41) %12, i1 noundef zeroext %34, i64 noundef %35, i64 noundef %36)
  %38 = getelementptr inbounds %class.ZErrno, ptr %5, i32 0, i32 0
  store i32 %37, ptr %38, align 4
  br label %40

39:                                               ; preds = %27, %25
  call void @llvm.memcpy.p0.p0.i64(ptr align 4 %5, ptr align 4 %10, i64 4, i1 false)
  br label %40

40:                                               ; preds = %39, %32
  %41 = getelementptr inbounds %class.ZErrno, ptr %5, i32 0, i32 0
  %42 = load i32, ptr %41, align 4
  ret i32 %42
}